; ModuleID = '7/69.c'
source_filename = "7/69.c"
target datalayout = "e-m:e-p270:32:32-p271:32:32-p272:64:64-i64:64-f80:128-n8:16:32:64-S128"
target triple = "x86_64-pc-linux-gnu"

@.str = private unnamed_addr constant [3 x i8] c"%s\00", align 1
@.str.1 = private unnamed_addr constant [3 x i8] c"%c\00", align 1

; Function Attrs: noinline nounwind uwtable
define dso_local i32 @main() #0 {
  %1 = alloca i32, align 4
  %2 = alloca [1000 x i8], align 16
  %3 = alloca [100 x i8], align 16
  %4 = alloca [100 x i8], align 16
  %5 = alloca i32, align 4
  %6 = alloca i32, align 4
  %7 = alloca i32, align 4
  %8 = alloca i32, align 4
  %9 = alloca i32, align 4
  %10 = alloca i32, align 4
  %11 = alloca i32, align 4
  store i32 0, i32* %1, align 4
  store i32 0, i32* %8, align 4
  %12 = getelementptr inbounds [100 x i8], [100 x i8]* %4, i64 0, i64 0
  %13 = call i32 (i8*, ...) bitcast (i32 (...)* @gets to i32 (i8*, ...)*)(i8* %12)
  %14 = getelementptr inbounds [1000 x i8], [1000 x i8]* %2, i64 0, i64 0
  %15 = call i32 (i8*, ...) @__isoc99_scanf(i8* getelementptr inbounds ([3 x i8], [3 x i8]* @.str, i64 0, i64 0), i8* %14)
  %16 = getelementptr inbounds [100 x i8], [100 x i8]* %3, i64 0, i64 0
  %17 = call i32 (i8*, ...) @__isoc99_scanf(i8* getelementptr inbounds ([3 x i8], [3 x i8]* @.str, i64 0, i64 0), i8* %16)
  %18 = getelementptr inbounds [100 x i8], [100 x i8]* %4, i64 0, i64 0
  %19 = call i64 @strlen(i8* %18) #3
  %20 = trunc i64 %19 to i32
  store i32 %20, i32* %7, align 4
  %21 = getelementptr inbounds [1000 x i8], [1000 x i8]* %2, i64 0, i64 0
  %22 = call i64 @strlen(i8* %21) #3
  %23 = trunc i64 %22 to i32
  store i32 %23, i32* %6, align 4
  %24 = getelementptr inbounds [100 x i8], [100 x i8]* %3, i64 0, i64 0
  %25 = call i64 @strlen(i8* %24) #3
  %26 = trunc i64 %25 to i32
  store i32 %26, i32* %5, align 4
  store i32 0, i32* %8, align 4
  br label %27

27:                                               ; preds = %98, %0
  %28 = load i32, i32* %8, align 4
  %29 = load i32, i32* %7, align 4
  %30 = icmp slt i32 %28, %29
  br i1 %30, label %31, label %101

31:                                               ; preds = %27
  %32 = load i32, i32* %8, align 4
  %33 = sext i32 %32 to i64
  %34 = getelementptr inbounds [100 x i8], [100 x i8]* %4, i64 0, i64 %33
  %35 = load i8, i8* %34, align 1
  %36 = sext i8 %35 to i32
  %37 = getelementptr inbounds [1000 x i8], [1000 x i8]* %2, i64 0, i64 0
  %38 = load i8, i8* %37, align 16
  %39 = sext i8 %38 to i32
  %40 = icmp eq i32 %36, %39
  br i1 %40, label %41, label %90

41:                                               ; preds = %31
  store i32 1, i32* %11, align 4
  store i32 0, i32* %9, align 4
  br label %42

42:                                               ; preds = %70, %41
  %43 = load i32, i32* %9, align 4
  %44 = load i32, i32* %6, align 4
  %45 = icmp slt i32 %43, %44
  br i1 %45, label %46, label %52

46:                                               ; preds = %42
  %47 = load i32, i32* %8, align 4
  %48 = load i32, i32* %9, align 4
  %49 = add nsw i32 %47, %48
  %50 = load i32, i32* %7, align 4
  %51 = icmp slt i32 %49, %50
  br label %52

52:                                               ; preds = %46, %42
  %53 = phi i1 [ false, %42 ], [ %51, %46 ]
  br i1 %53, label %54, label %73

54:                                               ; preds = %52
  %55 = load i32, i32* %9, align 4
  %56 = sext i32 %55 to i64
  %57 = getelementptr inbounds [1000 x i8], [1000 x i8]* %2, i64 0, i64 %56
  %58 = load i8, i8* %57, align 1
  %59 = sext i8 %58 to i32
  %60 = load i32, i32* %8, align 4
  %61 = load i32, i32* %9, align 4
  %62 = add nsw i32 %60, %61
  %63 = sext i32 %62 to i64
  %64 = getelementptr inbounds [100 x i8], [100 x i8]* %4, i64 0, i64 %63
  %65 = load i8, i8* %64, align 1
  %66 = sext i8 %65 to i32
  %67 = icmp ne i32 %59, %66
  br i1 %67, label %68, label %69

68:                                               ; preds = %54
  store i32 0, i32* %11, align 4
  br label %73

69:                                               ; preds = %54
  br label %70

70:                                               ; preds = %69
  %71 = load i32, i32* %9, align 4
  %72 = add nsw i32 %71, 1
  store i32 %72, i32* %9, align 4
  br label %42

73:                                               ; preds = %68, %52
  %74 = load i32, i32* %11, align 4
  %75 = icmp ne i32 %74, 0
  br i1 %75, label %76, label %82

76:                                               ; preds = %73
  %77 = getelementptr inbounds [100 x i8], [100 x i8]* %3, i64 0, i64 0
  %78 = call i32 (i8*, ...) @printf(i8* getelementptr inbounds ([3 x i8], [3 x i8]* @.str, i64 0, i64 0), i8* %77)
  %79 = load i32, i32* %6, align 4
  %80 = load i32, i32* %8, align 4
  %81 = add nsw i32 %80, %79
  store i32 %81, i32* %8, align 4
  br label %101

82:                                               ; preds = %73
  %83 = load i32, i32* %8, align 4
  %84 = sext i32 %83 to i64
  %85 = getelementptr inbounds [100 x i8], [100 x i8]* %4, i64 0, i64 %84
  %86 = load i8, i8* %85, align 1
  %87 = sext i8 %86 to i32
  %88 = call i32 (i8*, ...) @printf(i8* getelementptr inbounds ([3 x i8], [3 x i8]* @.str.1, i64 0, i64 0), i32 %87)
  br label %89

89:                                               ; preds = %82
  br label %97

90:                                               ; preds = %31
  %91 = load i32, i32* %8, align 4
  %92 = sext i32 %91 to i64
  %93 = getelementptr inbounds [100 x i8], [100 x i8]* %4, i64 0, i64 %92
  %94 = load i8, i8* %93, align 1
  %95 = sext i8 %94 to i32
  %96 = call i32 (i8*, ...) @printf(i8* getelementptr inbounds ([3 x i8], [3 x i8]* @.str.1, i64 0, i64 0), i32 %95)
  br label %97

97:                                               ; preds = %90, %89
  br label %98

98:                                               ; preds = %97
  %99 = load i32, i32* %8, align 4
  %100 = add nsw i32 %99, 1
  store i32 %100, i32* %8, align 4
  br label %27

101:                                              ; preds = %76, %27
  %102 = getelementptr inbounds [100 x i8], [100 x i8]* %4, i64 0, i64 0
  %103 = load i32, i32* %8, align 4
  %104 = sext i32 %103 to i64
  %105 = getelementptr inbounds i8, i8* %102, i64 %104
  %106 = call i32 (i8*, ...) @printf(i8* getelementptr inbounds ([3 x i8], [3 x i8]* @.str, i64 0, i64 0), i8* %105)
  ret i32 0
}

declare dso_local i32 @gets(...) #1

declare dso_local i32 @__isoc99_scanf(i8*, ...) #1

; Function Attrs: nounwind readonly
declare dso_local i64 @strlen(i8*) #2

declare dso_local i32 @printf(i8*, ...) #1


!llvm.module.flags = !{!0}
!llvm.ident = !{!1}

!0 = !{i32 1, !"wchar_size", i32 4}
!1 = !{!"clang version 10.0.0-4ubuntu1 "}
